target datalayout = "e-m:e-p270:32:32-p271:32:32-p272:64:64-i64:64-i128:128-f80:128-n8:16:32:64-S128"
target triple = "x86_64-pc-linux-gnu"

%struct.ImVec2 = type { float, float }
%struct.ImTriangulator = type { i32, ptr, %struct.ImTriangulatorNodeSpan, %struct.ImTriangulatorNodeSpan }
%struct.ImTriangulatorNodeSpan = type <{ ptr, i32, [4 x i8] }>
%struct.ImTriangulatorNode = type { i32, i32, %struct.ImVec2, ptr, ptr }

; Function Attrs: mustprogress nounwind uwtable
define linkonce_odr void @_ZN22ImTriangulatorNodeSpan9push_backEP18ImTriangulatorNode(ptr noundef nonnull align 8 dereferenceable(12) %0, ptr noundef %1) #3 comdat align 2 {
  %3 = alloca ptr, align 8
  %4 = alloca ptr, align 8
  store ptr %0, ptr %3, align 8, !tbaa !237
  store ptr %1, ptr %4, align 8, !tbaa !234
  %5 = load ptr, ptr %3, align 8
  %6 = load ptr, ptr %4, align 8, !tbaa !234
  %7 = getelementptr inbounds nuw %struct.ImTriangulatorNodeSpan, ptr %5, i32 0, i32 0
  %8 = load ptr, ptr %7, align 8, !tbaa !239
  %9 = getelementptr inbounds nuw %struct.ImTriangulatorNodeSpan, ptr %5, i32 0, i32 1
  %10 = load i32, ptr %9, align 8, !tbaa !240
  %11 = add nsw i32 %10, 1
  store i32 %11, ptr %9, align 8, !tbaa !240
  %12 = sext i32 %10 to i64
  %13 = getelementptr inbounds ptr, ptr %8, i64 %12
  store ptr %6, ptr %13, align 8, !tbaa !234
  ret void
}

; Function Attrs: mustprogress uwtable
define noundef zeroext i1 @_ZNK14ImTriangulator5IsEarEiiiRK6ImVec2S2_S2_(ptr noundef nonnull align 8 dereferenceable(48) %0, i32 noundef %1, i32 noundef %2, i32 noundef %3, ptr noundef nonnull align 4 dereferenceable(8) %4, ptr noundef nonnull align 4 dereferenceable(8) %5, ptr noundef nonnull align 4 dereferenceable(8) %6) #6 align 2 {
  %8 = alloca i1, align 1
  %9 = alloca ptr, align 8
  %10 = alloca i32, align 4
  %11 = alloca i32, align 4
  %12 = alloca i32, align 4
  %13 = alloca ptr, align 8
  %14 = alloca ptr, align 8
  %15 = alloca ptr, align 8
  %16 = alloca ptr, align 8
  %17 = alloca ptr, align 8
  %18 = alloca i32, align 4
  %19 = alloca ptr, align 8
  store ptr %0, ptr %9, align 8, !tbaa !216
  store i32 %1, ptr %10, align 4, !tbaa !27
  store i32 %2, ptr %11, align 4, !tbaa !27
  store i32 %3, ptr %12, align 4, !tbaa !27
  store ptr %4, ptr %13, align 8, !tbaa !33
  store ptr %5, ptr %14, align 8, !tbaa !33
  store ptr %6, ptr %15, align 8, !tbaa !33
  %20 = load ptr, ptr %9, align 8
  call void @llvm.lifetime.start.p0(i64 8, ptr %16) #17
  %21 = getelementptr inbounds nuw %struct.ImTriangulator, ptr %20, i32 0, i32 3
  %22 = getelementptr inbounds nuw %struct.ImTriangulatorNodeSpan, ptr %21, i32 0, i32 0
  %23 = load ptr, ptr %22, align 8, !tbaa !226
  %24 = getelementptr inbounds nuw %struct.ImTriangulator, ptr %20, i32 0, i32 3
  %25 = getelementptr inbounds nuw %struct.ImTriangulatorNodeSpan, ptr %24, i32 0, i32 1
  %26 = load i32, ptr %25, align 8, !tbaa !241
  %27 = sext i32 %26 to i64
  %28 = getelementptr inbounds ptr, ptr %23, i64 %27
  store ptr %28, ptr %16, align 8, !tbaa !242
  call void @llvm.lifetime.start.p0(i64 8, ptr %17) #17
  %29 = getelementptr inbounds nuw %struct.ImTriangulator, ptr %20, i32 0, i32 3
  %30 = getelementptr inbounds nuw %struct.ImTriangulatorNodeSpan, ptr %29, i32 0, i32 0
  %31 = load ptr, ptr %30, align 8, !tbaa !226
  store ptr %31, ptr %17, align 8, !tbaa !242
  br label %32

32:                                               ; preds = %70, %7
  %33 = load ptr, ptr %17, align 8, !tbaa !242
  %34 = load ptr, ptr %16, align 8, !tbaa !242
  %35 = icmp ult ptr %33, %34
  br i1 %35, label %37, label %36

36:                                               ; preds = %32
  store i32 2, ptr %18, align 4
  br label %73

37:                                               ; preds = %32
  call void @llvm.lifetime.start.p0(i64 8, ptr %19) #17
  %38 = load ptr, ptr %17, align 8, !tbaa !242
  %39 = load ptr, ptr %38, align 8, !tbaa !234
  store ptr %39, ptr %19, align 8, !tbaa !234
  %40 = load ptr, ptr %19, align 8, !tbaa !234
  %41 = getelementptr inbounds nuw %struct.ImTriangulatorNode, ptr %40, i32 0, i32 1
  %42 = load i32, ptr %41, align 4, !tbaa !230
  %43 = load i32, ptr %10, align 4, !tbaa !27
  %44 = icmp ne i32 %42, %43
  br i1 %44, label %45, label %66

45:                                               ; preds = %37
  %46 = load ptr, ptr %19, align 8, !tbaa !234
  %47 = getelementptr inbounds nuw %struct.ImTriangulatorNode, ptr %46, i32 0, i32 1
  %48 = load i32, ptr %47, align 4, !tbaa !230
  %49 = load i32, ptr %11, align 4, !tbaa !27
  %50 = icmp ne i32 %48, %49
  br i1 %50, label %51, label %66

51:                                               ; preds = %45
  %52 = load ptr, ptr %19, align 8, !tbaa !234
  %53 = getelementptr inbounds nuw %struct.ImTriangulatorNode, ptr %52, i32 0, i32 1
  %54 = load i32, ptr %53, align 4, !tbaa !230
  %55 = load i32, ptr %12, align 4, !tbaa !27
  %56 = icmp ne i32 %54, %55
  br i1 %56, label %57, label %66

57:                                               ; preds = %51
  %58 = load ptr, ptr %13, align 8, !tbaa !33
  %59 = load ptr, ptr %14, align 8, !tbaa !33
  %60 = load ptr, ptr %15, align 8, !tbaa !33
  %61 = load ptr, ptr %19, align 8, !tbaa !234
  %62 = getelementptr inbounds nuw %struct.ImTriangulatorNode, ptr %61, i32 0, i32 2
  %63 = call noundef zeroext i1 @_Z23ImTriangleContainsPointRK6ImVec2S1_S1_S1_(ptr noundef nonnull align 4 dereferenceable(8) %58, ptr noundef nonnull align 4 dereferenceable(8) %59, ptr noundef nonnull align 4 dereferenceable(8) %60, ptr noundef nonnull align 4 dereferenceable(8) %62)
  br i1 %63, label %64, label %65

64:                                               ; preds = %57
  store i1 false, ptr %8, align 1
  store i32 1, ptr %18, align 4
  br label %67

65:                                               ; preds = %57
  br label %66

66:                                               ; preds = %65, %51, %45, %37
  store i32 0, ptr %18, align 4
  br label %67

67:                                               ; preds = %66, %64
  call void @llvm.lifetime.end.p0(i64 8, ptr %19) #17
  %68 = load i32, ptr %18, align 4
  switch i32 %68, label %73 [
    i32 0, label %69
  ]

69:                                               ; preds = %67
  br label %70

70:                                               ; preds = %69
  %71 = load ptr, ptr %17, align 8, !tbaa !242
  %72 = getelementptr inbounds nuw ptr, ptr %71, i32 1
  store ptr %72, ptr %17, align 8, !tbaa !242
  br label %32, !llvm.loop !243

73:                                               ; preds = %67, %36
  call void @llvm.lifetime.end.p0(i64 8, ptr %17) #17
  %74 = load i32, ptr %18, align 4
  switch i32 %74, label %76 [
    i32 2, label %75
  ]

75:                                               ; preds = %73
  store i1 true, ptr %8, align 1
  store i32 1, ptr %18, align 4
  br label %76

76:                                               ; preds = %75, %73
  call void @llvm.lifetime.end.p0(i64 8, ptr %16) #17
  %77 = load i1, ptr %8, align 1
  ret i1 %77
}

; Function Attrs: mustprogress uwtable
define void @_ZN14ImTriangulator9BuildEarsEv(ptr noundef nonnull align 8 dereferenceable(48) %0) #6 align 2 {
  %2 = alloca ptr, align 8
  %3 = alloca ptr, align 8
  %4 = alloca i32, align 4
  store ptr %0, ptr %2, align 8, !tbaa !216
  %5 = load ptr, ptr %2, align 8
  call void @llvm.lifetime.start.p0(i64 8, ptr %3) #17
  %6 = getelementptr inbounds nuw %struct.ImTriangulator, ptr %5, i32 0, i32 1
  %7 = load ptr, ptr %6, align 8, !tbaa !224
  store ptr %7, ptr %3, align 8, !tbaa !234
  call void @llvm.lifetime.start.p0(i64 4, ptr %4) #17
  %8 = getelementptr inbounds nuw %struct.ImTriangulator, ptr %5, i32 0, i32 0
  %9 = load i32, ptr %8, align 8, !tbaa !218
  store i32 %9, ptr %4, align 4, !tbaa !27
  br label %10

10:                                               ; preds = %51, %1
  %11 = load i32, ptr %4, align 4, !tbaa !27
  %12 = icmp sge i32 %11, 0
  br i1 %12, label %14, label %13

13:                                               ; preds = %10
  call void @llvm.lifetime.end.p0(i64 4, ptr %4) #17
  br label %57

14:                                               ; preds = %10
  %15 = load ptr, ptr %3, align 8, !tbaa !234
  %16 = getelementptr inbounds nuw %struct.ImTriangulatorNode, ptr %15, i32 0, i32 0
  %17 = load i32, ptr %16, align 8, !tbaa !227
  %18 = icmp ne i32 %17, 0
  br i1 %18, label %19, label %20

19:                                               ; preds = %14
  br label %51

20:                                               ; preds = %14
  %21 = load ptr, ptr %3, align 8, !tbaa !234
  %22 = getelementptr inbounds nuw %struct.ImTriangulatorNode, ptr %21, i32 0, i32 4
  %23 = load ptr, ptr %22, align 8, !tbaa !232
  %24 = getelementptr inbounds nuw %struct.ImTriangulatorNode, ptr %23, i32 0, i32 1
  %25 = load i32, ptr %24, align 4, !tbaa !230
  %26 = load ptr, ptr %3, align 8, !tbaa !234
  %27 = getelementptr inbounds nuw %struct.ImTriangulatorNode, ptr %26, i32 0, i32 1
  %28 = load i32, ptr %27, align 4, !tbaa !230
  %29 = load ptr, ptr %3, align 8, !tbaa !234
  %30 = getelementptr inbounds nuw %struct.ImTriangulatorNode, ptr %29, i32 0, i32 3
  %31 = load ptr, ptr %30, align 8, !tbaa !231
  %32 = getelementptr inbounds nuw %struct.ImTriangulatorNode, ptr %31, i32 0, i32 1
  %33 = load i32, ptr %32, align 4, !tbaa !230
  %34 = load ptr, ptr %3, align 8, !tbaa !234
  %35 = getelementptr inbounds nuw %struct.ImTriangulatorNode, ptr %34, i32 0, i32 4
  %36 = load ptr, ptr %35, align 8, !tbaa !232
  %37 = getelementptr inbounds nuw %struct.ImTriangulatorNode, ptr %36, i32 0, i32 2
  %38 = load ptr, ptr %3, align 8, !tbaa !234
  %39 = getelementptr inbounds nuw %struct.ImTriangulatorNode, ptr %38, i32 0, i32 2
  %40 = load ptr, ptr %3, align 8, !tbaa !234
  %41 = getelementptr inbounds nuw %struct.ImTriangulatorNode, ptr %40, i32 0, i32 3
  %42 = load ptr, ptr %41, align 8, !tbaa !231
  %43 = getelementptr inbounds nuw %struct.ImTriangulatorNode, ptr %42, i32 0, i32 2
  %44 = call noundef zeroext i1 @_ZNK14ImTriangulator5IsEarEiiiRK6ImVec2S2_S2_(ptr noundef nonnull align 8 dereferenceable(48) %5, i32 noundef %25, i32 noundef %28, i32 noundef %33, ptr noundef nonnull align 4 dereferenceable(8) %37, ptr noundef nonnull align 4 dereferenceable(8) %39, ptr noundef nonnull align 4 dereferenceable(8) %43)
  br i1 %44, label %46, label %45

45:                                               ; preds = %20
  br label %51

46:                                               ; preds = %20
  %47 = load ptr, ptr %3, align 8, !tbaa !234
  %48 = getelementptr inbounds nuw %struct.ImTriangulatorNode, ptr %47, i32 0, i32 0
  store i32 1, ptr %48, align 8, !tbaa !227
  %49 = getelementptr inbounds nuw %struct.ImTriangulator, ptr %5, i32 0, i32 2
  %50 = load ptr, ptr %3, align 8, !tbaa !234
  call void @_ZN22ImTriangulatorNodeSpan9push_backEP18ImTriangulatorNode(ptr noundef nonnull align 8 dereferenceable(12) %49, ptr noundef %50)
  br label %51

51:                                               ; preds = %46, %45, %19
  %52 = load i32, ptr %4, align 4, !tbaa !27
  %53 = add nsw i32 %52, -1
  store i32 %53, ptr %4, align 4, !tbaa !27
  %54 = load ptr, ptr %3, align 8, !tbaa !234
  %55 = getelementptr inbounds nuw %struct.ImTriangulatorNode, ptr %54, i32 0, i32 3
  %56 = load ptr, ptr %55, align 8, !tbaa !231
  store ptr %56, ptr %3, align 8, !tbaa !234
  br label %10, !llvm.loop !236

57:                                               ; preds = %13
  call void @llvm.lifetime.end.p0(i64 8, ptr %3) #17
  ret void
}