; Function Attrs: mustprogress uwtable
define void @_ZN14ImTriangulator9BuildEarsEv(ptr noundef nonnull align 8 captures(none) dereferenceable(48) %0) local_unnamed_addr #12 align 2 {
  %2 = load i32, ptr %0, align 8, !tbaa !179
  %3 = icmp sgt i32 %2, -1
  br i1 %3, label %.lr.ph, label %._crit_edge

.lr.ph:                                           ; preds = %1
  %4 = getelementptr inbounds nuw i8, ptr %0, i64 8
  %5 = getelementptr inbounds nuw i8, ptr %0, i64 32
  %6 = getelementptr inbounds nuw i8, ptr %0, i64 40
  %7 = getelementptr inbounds nuw i8, ptr %0, i64 16
  %8 = getelementptr inbounds nuw i8, ptr %0, i64 24
  br label %9

._crit_edge:                                      ; preds = %_ZNK14ImTriangulator5IsEarEiiiRK6ImVec2S2_S2_.exit, %1
  ret void

9:                                                ; preds = %.lr.ph, %_ZNK14ImTriangulator5IsEarEiiiRK6ImVec2S2_S2_.exit
  %.01216.in = phi ptr [ %4, %.lr.ph ], [ %42, %_ZNK14ImTriangulator5IsEarEiiiRK6ImVec2S2_S2_.exit ]
  %.015 = phi i32 [ %2, %.lr.ph ], [ %41, %_ZNK14ImTriangulator5IsEarEiiiRK6ImVec2S2_S2_.exit ]
  %.01216 = load ptr, ptr %.01216.in, align 8, !tbaa !195
  %10 = load i32, ptr %.01216, align 8, !tbaa !192
  %.not = icmp eq i32 %10, 0
  br i1 %.not, label %11, label %_ZNK14ImTriangulator5IsEarEiiiRK6ImVec2S2_S2_.exit

11:                                               ; preds = %9
  %12 = getelementptr inbounds nuw i8, ptr %.01216, i64 24
  %13 = load ptr, ptr %12, align 8, !tbaa !188
  %14 = getelementptr inbounds nuw i8, ptr %13, i64 4
  %15 = load i32, ptr %14, align 4, !tbaa !193
  %16 = getelementptr inbounds nuw i8, ptr %.01216, i64 4
  %17 = load i32, ptr %16, align 4, !tbaa !193
  %18 = getelementptr inbounds nuw i8, ptr %.01216, i64 16
  %19 = load ptr, ptr %18, align 8, !tbaa !191
  %20 = getelementptr inbounds nuw i8, ptr %19, i64 4
  %21 = load i32, ptr %20, align 4, !tbaa !193
  %22 = getelementptr inbounds nuw i8, ptr %13, i64 8
  %23 = getelementptr inbounds nuw i8, ptr %.01216, i64 8
  %24 = getelementptr inbounds nuw i8, ptr %19, i64 8
  %25 = load ptr, ptr %5, align 8, !tbaa !187
  %26 = load i32, ptr %6, align 8, !tbaa !198
  %27 = sext i32 %26 to i64
  %28 = getelementptr inbounds ptr, ptr %25, i64 %27
  %.not2428.i = icmp slt i32 %26, 1
  br i1 %.not2428.i, label %.loopexit, label %.lr.ph.i

.lr.ph.i:                                         ; preds = %11, %.critedge.i
  %.02029.i = phi ptr [ %35, %.critedge.i ], [ %25, %11 ]
  %29 = load ptr, ptr %.02029.i, align 8, !tbaa !195
  %30 = getelementptr inbounds nuw i8, ptr %29, i64 4
  %31 = load i32, ptr %30, align 4, !tbaa !193
  %.not.i = icmp eq i32 %31, %15
  %.not22.i = icmp eq i32 %31, %17
  %or.cond.i = or i1 %.not.i, %.not22.i
  %.not23.i = icmp eq i32 %31, %21
  %or.cond25.i = or i1 %.not23.i, %or.cond.i
  br i1 %or.cond25.i, label %.critedge.i, label %32

32:                                               ; preds = %.lr.ph.i
  %33 = getelementptr inbounds nuw i8, ptr %29, i64 8
  %34 = tail call noundef zeroext i1 @_Z23ImTriangleContainsPointRK6ImVec2S1_S1_S1_(ptr noundef nonnull align 4 dereferenceable(8) %22, ptr noundef nonnull align 4 dereferenceable(8) %23, ptr noundef nonnull align 4 dereferenceable(8) %24, ptr noundef nonnull align 4 dereferenceable(8) %33)
  br i1 %34, label %_ZNK14ImTriangulator5IsEarEiiiRK6ImVec2S2_S2_.exit, label %.critedge.i

.critedge.i:                                      ; preds = %32, %.lr.ph.i
  %35 = getelementptr inbounds nuw i8, ptr %.02029.i, i64 8
  %.not24.not.i = icmp ult ptr %35, %28
  br i1 %.not24.not.i, label %.lr.ph.i, label %.loopexit, !llvm.loop !199

.loopexit:                                        ; preds = %.critedge.i, %11
  store i32 1, ptr %.01216, align 8, !tbaa !192
  %36 = load ptr, ptr %7, align 8, !tbaa !200
  %37 = load i32, ptr %8, align 8, !tbaa !196
  %38 = add nsw i32 %37, 1
  store i32 %38, ptr %8, align 8, !tbaa !196
  %39 = sext i32 %37 to i64
  %40 = getelementptr inbounds ptr, ptr %36, i64 %39
  store ptr %.01216, ptr %40, align 8, !tbaa !195
  br label %_ZNK14ImTriangulator5IsEarEiiiRK6ImVec2S2_S2_.exit

_ZNK14ImTriangulator5IsEarEiiiRK6ImVec2S2_S2_.exit: ; preds = %32, %9, %.loopexit
  %41 = add nsw i32 %.015, -1
  %42 = getelementptr inbounds nuw i8, ptr %.01216, i64 16
  %43 = icmp sgt i32 %.015, 0
  br i1 %43, label %9, label %._crit_edge, !llvm.loop !201
}